target datalayout = "e-m:e-p270:32:32-p271:32:32-p272:64:64-i64:64-i128:128-f80:128-n8:16:32:64-S128"
target triple = "x86_64-pc-linux-gnu"

%struct.ssl_connection_st = type { %struct.ssl_st, ptr, i32, ptr, ptr, ptr, i32, ptr, i32, i32, i32, i32, %struct.OSSL_TIME, %struct.OSSL_TIME, %struct.ossl_statem_st, i32, ptr, ptr, i64, i64, i64, %struct.ossl_quic_tls_callbacks_st, ptr, ptr, %struct.anon, ptr, ptr, ptr, i32, ptr, %struct.ssl_dane_st, ptr, ptr, ptr, ptr, i32, [64 x i8], [64 x i8], [64 x i8], [64 x i8], [64 x i8], [64 x i8], [64 x i8], [64 x i8], [64 x i8], [64 x i8], [64 x i8], [64 x i8], ptr, [64 x i8], i64, i32, i64, [32 x i8], ptr, ptr, ptr, i64, ptr, [32 x i8], i64, i32, ptr, ptr, i32, i32, ptr, ptr, ptr, ptr, ptr, i64, ptr, ptr, i64, i32, i32, i32, i64, i32, i32, i64, i64, i64, %struct.anon.1, ptr, i32, ptr, ptr, ptr, i32, ptr, ptr, ptr, i32, i32, i32, i32, ptr, i64, i32, ptr, %struct.srp_ctx_st, ptr, %struct.record_layer_st, ptr, ptr, ptr, ptr, i64, i32, i32, i32, i64, i64, i64, ptr, ptr, ptr, ptr, ptr, i64, ptr, i64, ptr, i64 }
%struct.ssl_st = type { i32, ptr, ptr, ptr, %struct.CRYPTO_REF_COUNT, ptr, %struct.crypto_ex_data_st }
%struct.CRYPTO_REF_COUNT = type { i32 }
%struct.crypto_ex_data_st = type { ptr, ptr }
%struct.OSSL_TIME = type { i64 }
%struct.ossl_statem_st = type { i32, i32, i32, i32, i32, i32, i32, i32, i32, i32, i32, i32, i32, ptr, ptr, ptr, i8 }
%struct.ossl_quic_tls_callbacks_st = type { ptr, ptr, ptr, ptr, ptr, ptr }
%struct.anon = type { i64, [32 x i8], [32 x i8], ptr, ptr, i32, i32, i32, i32, [2 x i8], i32, i32, i32, i32, %struct.anon.0, [64 x i8], i64, [64 x i8], i64, i32, i32, ptr, i64, ptr, i64, i32, i8, i8, i16, ptr, i16 }
%struct.anon.0 = type { [128 x i8], i64, [128 x i8], i64, i64, i32, ptr, ptr, [4 x ptr], [4 x i16], i64, i32, ptr, i64, ptr, i64, ptr, ptr, ptr, i32, i64, ptr, i32, ptr, i64, ptr, i64, ptr, i64, ptr, ptr, ptr, ptr, i64, i64, ptr, ptr, i32, i32, i32, i32 }
%struct.ssl_dane_st = type { ptr, ptr, ptr, ptr, ptr, i32, i32, i32, i64 }
%struct.anon.1 = type { [29 x i8], ptr, ptr, ptr, i32, ptr, i16, i32, %struct.anon.2, i32, i32, i64, ptr, i64, ptr, i64, ptr, i64, ptr, i64, ptr, i64, ptr, ptr, ptr, ptr, ptr, ptr, ptr, i64, ptr, i64, i32, i32, i32, i32, ptr, i64, i32, i8, i32, [4 x i32], i32, i8, i8, i8, i8 }
%struct.anon.2 = type { ptr, ptr, ptr, i64 }
%struct.srp_ctx_st = type { ptr, ptr, ptr, ptr, ptr, ptr, ptr, ptr, ptr, ptr, ptr, ptr, ptr, ptr, i32, i64 }
%struct.record_layer_st = type { ptr, ptr, ptr, ptr, ptr, ptr, ptr, ptr, i64, i32, i64, [4 x i8], i64, i64, i8, ptr, i32, ptr, ptr, ptr, i64, i64, i64, i64, [32 x %struct.tls_record_st] }
%struct.tls_record_st = type { ptr, i32, i8, ptr, ptr, i64, i64, i16, [8 x i8] }

@.str = private unnamed_addr constant [24 x i8] c"../openssl/ssl/s3_enc.c\00", align 1
@__func__.ssl3_finish_mac = private unnamed_addr constant [16 x i8] c"ssl3_finish_mac\00", align 1

; Function Attrs: nounwind uwtable
define i32 @ssl3_finish_mac(ptr noundef %0, ptr noundef %1, i64 noundef %2) #0 {
  %4 = alloca i32, align 4
  %5 = alloca ptr, align 8
  %6 = alloca ptr, align 8
  %7 = alloca i64, align 8
  %8 = alloca i32, align 4
  %9 = alloca i32, align 4
  store ptr %0, ptr %5, align 8, !tbaa !3
  store ptr %1, ptr %6, align 8, !tbaa !77
  store i64 %2, ptr %7, align 8, !tbaa !78
  call void @llvm.lifetime.start.p0(i64 4, ptr %8) #7
  %10 = load ptr, ptr %5, align 8, !tbaa !3
  %11 = getelementptr inbounds nuw %struct.ssl_connection_st, ptr %10, i32 0, i32 24
  %12 = getelementptr inbounds nuw %struct.anon, ptr %11, i32 0, i32 4
  %13 = load ptr, ptr %12, align 8, !tbaa !108
  %14 = icmp eq ptr %13, null
  br i1 %14, label %15, label %39

15:                                               ; preds = %3
  %16 = load i64, ptr %7, align 8, !tbaa !78
  %17 = icmp ugt i64 %16, 2147483647
  br i1 %17, label %18, label %20

18:                                               ; preds = %15
  call void @ERR_new()
  call void @ERR_set_debug(ptr noundef @.str, i32 noundef 255, ptr noundef @__func__.ssl3_finish_mac)
  %19 = load ptr, ptr %5, align 8, !tbaa !3
  call void (ptr, i32, i32, ptr, ...) @ossl_statem_fatal(ptr noundef %19, i32 noundef 80, i32 noundef 237, ptr noundef null)
  store i32 0, ptr %4, align 4
  store i32 1, ptr %9, align 4
  br label %53

20:                                               ; preds = %15
  %21 = load ptr, ptr %5, align 8, !tbaa !3
  %22 = getelementptr inbounds nuw %struct.ssl_connection_st, ptr %21, i32 0, i32 24
  %23 = getelementptr inbounds nuw %struct.anon, ptr %22, i32 0, i32 3
  %24 = load ptr, ptr %23, align 8, !tbaa !107
  %25 = load ptr, ptr %6, align 8, !tbaa !77
  %26 = load i64, ptr %7, align 8, !tbaa !78
  %27 = trunc i64 %26 to i32
  %28 = call i32 @BIO_write(ptr noundef %24, ptr noundef %25, i32 noundef %27)
  store i32 %28, ptr %8, align 4, !tbaa !8
  %29 = load i32, ptr %8, align 4, !tbaa !8
  %30 = icmp sle i32 %29, 0
  br i1 %30, label %36, label %31

31:                                               ; preds = %20
  %32 = load i32, ptr %8, align 4, !tbaa !8
  %33 = load i64, ptr %7, align 8, !tbaa !78
  %34 = trunc i64 %33 to i32
  %35 = icmp ne i32 %32, %34
  br i1 %35, label %36, label %38

36:                                               ; preds = %31, %20
  call void @ERR_new()
  call void @ERR_set_debug(ptr noundef @.str, i32 noundef 260, ptr noundef @__func__.ssl3_finish_mac)
  %37 = load ptr, ptr %5, align 8, !tbaa !3
  call void (ptr, i32, i32, ptr, ...) @ossl_statem_fatal(ptr noundef %37, i32 noundef 80, i32 noundef 786691, ptr noundef null)
  store i32 0, ptr %4, align 4
  store i32 1, ptr %9, align 4
  br label %53

38:                                               ; preds = %31
  br label %52

39:                                               ; preds = %3
  %40 = load ptr, ptr %5, align 8, !tbaa !3
  %41 = getelementptr inbounds nuw %struct.ssl_connection_st, ptr %40, i32 0, i32 24
  %42 = getelementptr inbounds nuw %struct.anon, ptr %41, i32 0, i32 4
  %43 = load ptr, ptr %42, align 8, !tbaa !108
  %44 = load ptr, ptr %6, align 8, !tbaa !77
  %45 = load i64, ptr %7, align 8, !tbaa !78
  %46 = call i32 @EVP_DigestUpdate(ptr noundef %43, ptr noundef %44, i64 noundef %45)
  store i32 %46, ptr %8, align 4, !tbaa !8
  %47 = load i32, ptr %8, align 4, !tbaa !8
  %48 = icmp ne i32 %47, 0
  br i1 %48, label %51, label %49

49:                                               ; preds = %39
  call void @ERR_new()
  call void @ERR_set_debug(ptr noundef @.str, i32 noundef 266, ptr noundef @__func__.ssl3_finish_mac)
  %50 = load ptr, ptr %5, align 8, !tbaa !3
  call void (ptr, i32, i32, ptr, ...) @ossl_statem_fatal(ptr noundef %50, i32 noundef 80, i32 noundef 786691, ptr noundef null)
  store i32 0, ptr %4, align 4
  store i32 1, ptr %9, align 4
  br label %53

51:                                               ; preds = %39
  br label %52

52:                                               ; preds = %51, %38
  store i32 1, ptr %4, align 4
  store i32 1, ptr %9, align 4
  br label %53

53:                                               ; preds = %52, %49, %36, %18
  call void @llvm.lifetime.end.p0(i64 4, ptr %8) #7
  %54 = load i32, ptr %4, align 4
  ret i32 %54
}