; Function Attrs: nounwind uwtable
define range(i32 0, 2) i32 @ssl3_finish_mac(ptr noundef %0, ptr noundef %1, i64 noundef %2) local_unnamed_addr #0 {
  %4 = getelementptr inbounds nuw i8, ptr %0, i64 432
  %5 = load ptr, ptr %4, align 8, !tbaa !101
  %6 = icmp eq ptr %5, null
  br i1 %6, label %7, label %15

7:                                                ; preds = %3
  %8 = icmp ugt i64 %2, 2147483647
  br i1 %8, label %.sink.split, label %9

9:                                                ; preds = %7
  %10 = getelementptr inbounds nuw i8, ptr %0, i64 424
  %11 = load ptr, ptr %10, align 8, !tbaa !100
  %12 = trunc nuw nsw i64 %2 to i32
  %13 = tail call i32 @BIO_write(ptr noundef %11, ptr noundef %1, i32 noundef %12) #8
  %14 = icmp sgt i32 %13, 0
  %.not18 = icmp eq i32 %13, %12
  %or.cond = and i1 %14, %.not18
  br i1 %or.cond, label %17, label %.sink.split

15:                                               ; preds = %3
  %16 = tail call i32 @EVP_DigestUpdate(ptr noundef nonnull %5, ptr noundef %1, i64 noundef %2) #8
  %.not = icmp eq i32 %16, 0
  br i1 %.not, label %.sink.split, label %17

.sink.split:                                      ; preds = %15, %9, %7
  %.sink19 = phi i32 [ 255, %7 ], [ 260, %9 ], [ 266, %15 ]
  %.sink = phi i32 [ 237, %7 ], [ 786691, %9 ], [ 786691, %15 ]
  tail call void @ERR_new() #8
  tail call void @ERR_set_debug(ptr noundef nonnull @.str, i32 noundef %.sink19, ptr noundef nonnull @__func__.ssl3_finish_mac) #8
  tail call void (ptr, i32, i32, ptr, ...) @ossl_statem_fatal(ptr noundef nonnull %0, i32 noundef 80, i32 noundef %.sink, ptr noundef null) #8
  br label %17

17:                                               ; preds = %.sink.split, %15, %9
  %.0 = phi i32 [ 1, %9 ], [ 1, %15 ], [ 0, %.sink.split ]
  ret i32 %.0
}